; Function Attrs: nounwind uwtable
define internal ptr @file_macro(ptr nocapture noundef readonly %tmpl) #0 {
entry:
  br label %while.cond

while.cond:                                       ; preds = %while.cond, %entry
  %tmpl.addr.0 = phi ptr [ %tmpl, %entry ], [ %0, %while.cond ]
  %origin = getelementptr inbounds %struct.Token, ptr %tmpl.addr.0, i64 0, i32 15
  %0 = load ptr, ptr %origin, align 8
  %tobool.not = icmp eq ptr %0, null
  br i1 %tobool.not, label %while.end, label %while.cond, !llvm.loop !9

while.end:                                        ; preds = %while.cond
  %file = getelementptr inbounds %struct.Token, ptr %tmpl.addr.0, i64 0, i32 8
  %1 = load ptr, ptr %file, align 16
  %display_name = getelementptr inbounds %struct.File, ptr %1, i64 0, i32 3
  %2 = load ptr, ptr %display_name, align 8
  br label %for.cond.i.i

for.cond.i.i:                                     ; preds = %if.end.i.i, %while.end
  %indvars.iv.i.i = phi i64 [ %indvars.iv.next.i.i, %if.end.i.i ], [ 0, %while.end ]
  %bufsize.0.i.i = phi i32 [ %inc9.i.i, %if.end.i.i ], [ 3, %while.end ]
  %arrayidx.i.i = getelementptr inbounds i8, ptr %2, i64 %indvars.iv.i.i
  %3 = load i8, ptr %arrayidx.i.i, align 1
  switch i8 %3, label %if.end.i.i [
    i8 0, label %for.end.i.i
    i8 92, label %if.then.i.i
    i8 34, label %if.then.i.i
  ]

if.then.i.i:                                      ; preds = %for.cond.i.i, %for.cond.i.i
  %inc.i.i = add nsw i32 %bufsize.0.i.i, 1
  br label %if.end.i.i

if.end.i.i:                                       ; preds = %if.then.i.i, %for.cond.i.i
  %bufsize.1.i.i = phi i32 [ %inc.i.i, %if.then.i.i ], [ %bufsize.0.i.i, %for.cond.i.i ]
  %inc9.i.i = add nsw i32 %bufsize.1.i.i, 1
  %indvars.iv.next.i.i = add nuw i64 %indvars.iv.i.i, 1
  br label %for.cond.i.i, !llvm.loop !10

for.end.i.i:                                      ; preds = %for.cond.i.i
  %conv11.i.i = sext i32 %bufsize.0.i.i to i64
  %call.i.i = tail call noalias ptr @calloc(i64 noundef 1, i64 noundef %conv11.i.i) #15
  store i8 34, ptr %call.i.i, align 1
  br label %for.cond13.i.i

for.cond13.i.i:                                   ; preds = %if.end31.i.i, %for.end.i.i
  %indvars.iv23.i.i = phi i64 [ %indvars.iv.next24.i.i, %if.end31.i.i ], [ 0, %for.end.i.i ]
  %call.pn.i.i = phi ptr [ %p.1.i.i, %if.end31.i.i ], [ %call.i.i, %for.end.i.i ]
  %p.0.i.i = getelementptr inbounds i8, ptr %call.pn.i.i, i64 1
  %arrayidx15.i.i = getelementptr inbounds i8, ptr %2, i64 %indvars.iv23.i.i
  %4 = load i8, ptr %arrayidx15.i.i, align 1
  switch i8 %4, label %if.end31.i.i [
    i8 0, label %new_str_token.exit
    i8 92, label %if.then29.i.i
    i8 34, label %if.then29.i.i
  ]

if.then29.i.i:                                    ; preds = %for.cond13.i.i, %for.cond13.i.i
  %incdec.ptr30.i.i = getelementptr inbounds i8, ptr %call.pn.i.i, i64 2
  store i8 92, ptr %p.0.i.i, align 1
  %.pre.i.i = load i8, ptr %arrayidx15.i.i, align 1
  br label %if.end31.i.i

if.end31.i.i:                                     ; preds = %if.then29.i.i, %for.cond13.i.i
  %5 = phi i8 [ %.pre.i.i, %if.then29.i.i ], [ %4, %for.cond13.i.i ]
  %p.1.i.i = phi ptr [ %incdec.ptr30.i.i, %if.then29.i.i ], [ %p.0.i.i, %for.cond13.i.i ]
  store i8 %5, ptr %p.1.i.i, align 1
  %indvars.iv.next24.i.i = add nuw i64 %indvars.iv23.i.i, 1
  br label %for.cond13.i.i, !llvm.loop !11

new_str_token.exit:                               ; preds = %for.cond13.i.i
  %incdec.ptr38.i.i = getelementptr inbounds i8, ptr %call.pn.i.i, i64 2
  store i8 34, ptr %p.0.i.i, align 1
  store i8 0, ptr %incdec.ptr38.i.i, align 1
  %6 = load ptr, ptr %file, align 16
  %7 = load ptr, ptr %6, align 8
  %file_no.i = getelementptr inbounds %struct.File, ptr %6, i64 0, i32 1
  %8 = load i32, ptr %file_no.i, align 8
  %call2.i = tail call ptr @new_file(ptr noundef %7, i32 noundef %8, ptr noundef nonnull %call.i.i) #14
  %call3.i = tail call ptr @tokenize(ptr noundef %call2.i) #14
  ret ptr %call3.i
}